(dp1
S'num_trials'
p2
I200
sS'lower_is_better'
p3
I01
sS'parameters'
p4
(lp5
ccopy_reg
_reconstructor
p6
(csherpa.core
Choice
p7
c__builtin__
object
p8
NtRp9
(dp10
S'range'
p11
(lp12
I128
asS'type'
p13
c__builtin__
int
p14
sS'name'
p15
S'batch_size'
p16
sbag6
(g7
g8
NtRp17
(dp18
g11
(lp19
I50
asg13
g14
sg15
S'patience'
p20
sbag6
(g7
g8
NtRp21
(dp22
g11
(lp23
I200
asg13
g14
sg15
S'epochs'
p24
sbag6
(g7
g8
NtRp25
(dp26
g11
(lp27
S'fcn'
p28
aS'cnn'
p29
asg13
c__builtin__
str
p30
sg15
S'model'
p31
sbag6
(g7
g8
NtRp32
(dp33
g11
(lp34
I2
aI3
asg13
g14
sg15
S'num_layers'
p35
sbag6
(g7
g8
NtRp36
(dp37
g11
(lp38
F0.10000000000000001
aF0.01
aF0.001
aF0.0001
aF1.0000000000000001e-05
aF9.9999999999999995e-07
asg13
c__builtin__
float
p39
sg15
S'lr'
p40
sbag6
(g7
g8
NtRp41
(dp42
g11
(lp43
S'0,1,2,3'
p44
asg13
g30
sg15
S'gpus'
p45
sbag6
(g7
g8
NtRp46
(dp47
g11
(lp48
S'json'
p49
asg13
g30
sg15
S'save_type'
p50
sbag6
(g7
g8
NtRp51
(dp52
g11
(lp53
I12
asg13
g14
sg15
S'max_concurrent'
p54
sbag6
(g7
g8
NtRp55
(dp56
g11
(lp57
I3
asg13
g14
sg15
S'max_layers'
p58
sbag6
(g7
g8
NtRp59
(dp60
g11
(lp61
S'cifar'
p62
asg13
g30
sg15
S'dataset'
p63
sbas.